; Function Attrs: mustprogress uwtable
define hidden void @_ZN7nanogui9TabWidget14perform_layoutEP10NVGcontext(ptr noundef nonnull align 8 dereferenceable(473) %0, ptr noundef %1) unnamed_addr #0 align 2 {
  tail call void @_ZN7nanogui13TabWidgetBase14perform_layoutEP10NVGcontext(ptr noundef nonnull align 8 dereferenceable(416) %0, ptr noundef %1)
  %3 = tail call noundef i32 @_ZNK7nanogui6Widget9font_sizeEv(ptr noundef nonnull align 8 dereferenceable(140) %0)
  %4 = getelementptr inbounds i8, ptr %0, i64 24
  %5 = load ptr, ptr %4, align 8
  %6 = getelementptr inbounds i8, ptr %5, i64 84
  %7 = load i32, ptr %6, align 4
  %8 = shl nsw i32 %7, 1
  %9 = add nsw i32 %8, %3
  %10 = getelementptr inbounds i8, ptr %0, i64 64
  %11 = load ptr, ptr %10, align 8
  %12 = getelementptr inbounds i8, ptr %0, i64 72
  %13 = load ptr, ptr %12, align 8
  %.not20 = icmp eq ptr %11, %13
  br i1 %.not20, label %._crit_edge, label %_ZN7nanoguimiERKNS_5ArrayIiLm2EEES3_.exit.critedge.lr.ph

_ZN7nanoguimiERKNS_5ArrayIiLm2EEES3_.exit.critedge.lr.ph: ; preds = %2
  %14 = getelementptr inbounds i8, ptr %0, i64 300
  %15 = add i32 %9, 1
  %16 = getelementptr inbounds i8, ptr %0, i64 48
  %17 = getelementptr inbounds i8, ptr %0, i64 52
  br label %_ZN7nanoguimiERKNS_5ArrayIiLm2EEES3_.exit.critedge

_ZN7nanoguimiERKNS_5ArrayIiLm2EEES3_.exit.critedge: ; preds = %_ZN7nanoguimiERKNS_5ArrayIiLm2EEES3_.exit.critedge.lr.ph, %_ZN7nanoguimiERKNS_5ArrayIiLm2EEES3_.exit.critedge
  %.sroa.015.021 = phi ptr [ %11, %_ZN7nanoguimiERKNS_5ArrayIiLm2EEES3_.exit.critedge.lr.ph ], [ %33, %_ZN7nanoguimiERKNS_5ArrayIiLm2EEES3_.exit.critedge ]
  %18 = load ptr, ptr %.sroa.015.021, align 8
  %19 = load i32, ptr %14, align 4
  %20 = add i32 %15, %19
  %21 = getelementptr inbounds i8, ptr %18, i64 40
  %.sroa.213.0.insert.ext = zext i32 %20 to i64
  %.sroa.213.0.insert.shift = shl nuw i64 %.sroa.213.0.insert.ext, 32
  %.sroa.012.0.insert.ext = zext i32 %19 to i64
  %.sroa.012.0.insert.insert = or disjoint i64 %.sroa.213.0.insert.shift, %.sroa.012.0.insert.ext
  store i64 %.sroa.012.0.insert.insert, ptr %21, align 8
  %22 = load i32, ptr %14, align 4
  %23 = shl nsw i32 %22, 1
  %24 = add nsw i32 %23, %9
  %.neg = xor i32 %24, -1
  %25 = load i32, ptr %16, align 8
  %26 = sub nsw i32 %25, %23
  %27 = load i32, ptr %17, align 4
  %28 = add i32 %27, %.neg
  %29 = getelementptr inbounds i8, ptr %18, i64 48
  %.sroa.011.sroa.2.0.insert.ext = zext i32 %28 to i64
  %.sroa.011.sroa.2.0.insert.shift = shl nuw i64 %.sroa.011.sroa.2.0.insert.ext, 32
  %.sroa.011.sroa.0.0.insert.ext = zext i32 %26 to i64
  %.sroa.011.sroa.0.0.insert.insert = or disjoint i64 %.sroa.011.sroa.2.0.insert.shift, %.sroa.011.sroa.0.0.insert.ext
  store i64 %.sroa.011.sroa.0.0.insert.insert, ptr %29, align 8
  %30 = load ptr, ptr %18, align 8
  %31 = getelementptr inbounds i8, ptr %30, i64 104
  %32 = load ptr, ptr %31, align 8
  tail call void %32(ptr noundef nonnull align 8 dereferenceable(140) %18, ptr noundef %1)
  %33 = getelementptr inbounds i8, ptr %.sroa.015.021, i64 8
  %.not = icmp eq ptr %33, %13
  br i1 %.not, label %._crit_edge, label %_ZN7nanoguimiERKNS_5ArrayIiLm2EEES3_.exit.critedge

._crit_edge:                                      ; preds = %_ZN7nanoguimiERKNS_5ArrayIiLm2EEES3_.exit.critedge, %2
  ret void
}